target datalayout = "e-m:e-p270:32:32-p271:32:32-p272:64:64-i64:64-i128:128-f80:128-n8:16:32:64-S128"
target triple = "x86_64-pc-linux-gnu"

; Function Attrs: nounwind uwtable
define internal i32 @T1_Set_Var_Design(ptr noundef %0, i32 noundef %1, ptr noundef %2) #0 {
  %4 = alloca ptr, align 8
  %5 = alloca i32, align 4
  %6 = alloca ptr, align 8
  %7 = alloca [4 x i64], align 16
  %8 = alloca i32, align 4
  store ptr %0, ptr %4, align 8
  store i32 %1, ptr %5, align 4
  store ptr %2, ptr %6, align 8
  %9 = load i32, ptr %5, align 4
  %10 = icmp ugt i32 %9, 4
  br i1 %10, label %11, label %12

11:                                               ; preds = %3
  store i32 4, ptr %5, align 4
  br label %12

12:                                               ; preds = %11, %3
  store i32 0, ptr %8, align 4
  br label %13

13:                                               ; preds = %28, %12
  %14 = load i32, ptr %8, align 4
  %15 = load i32, ptr %5, align 4
  %16 = icmp ult i32 %14, %15
  br i1 %16, label %17, label %31

17:                                               ; preds = %13
  %18 = load ptr, ptr %6, align 8
  %19 = load i32, ptr %8, align 4
  %20 = zext i32 %19 to i64
  %21 = getelementptr inbounds i64, ptr %18, i64 %20
  %22 = load i64, ptr %21, align 8
  %23 = call i64 @FT_RoundFix(i64 noundef %22)
  %24 = ashr i64 %23, 16
  %25 = load i32, ptr %8, align 4
  %26 = zext i32 %25 to i64
  %27 = getelementptr inbounds [4 x i64], ptr %7, i64 0, i64 %26
  store i64 %24, ptr %27, align 8
  br label %28

28:                                               ; preds = %17
  %29 = load i32, ptr %8, align 4
  %30 = add i32 %29, 1
  store i32 %30, ptr %8, align 4
  br label %13, !llvm.loop !18

31:                                               ; preds = %13
  %32 = load ptr, ptr %4, align 8
  %33 = load i32, ptr %5, align 4
  %34 = getelementptr inbounds [4 x i64], ptr %7, i64 0, i64 0
  %35 = call i32 @T1_Set_MM_Design(ptr noundef %32, i32 noundef %33, ptr noundef %34)
  ret i32 %35
}