; Function Attrs: nounwind uwtable
define internal i32 @T1_Set_Var_Design(ptr nocapture noundef readonly %0, i32 noundef %1, ptr nocapture noundef readonly %2) #2 {
  %4 = alloca [4 x i64], align 16
  %spec.store.select = tail call i32 @llvm.umin.i32(i32 %1, i32 4)
  %.not = icmp eq i32 %1, 0
  br i1 %.not, label %._crit_edge, label %.lr.ph.preheader

.lr.ph.preheader:                                 ; preds = %3
  %wide.trip.count = zext nneg i32 %spec.store.select to i64
  br label %.lr.ph

.lr.ph:                                           ; preds = %.lr.ph.preheader, %.lr.ph
  %indvars.iv = phi i64 [ 0, %.lr.ph.preheader ], [ %indvars.iv.next, %.lr.ph ]
  %5 = getelementptr inbounds i64, ptr %2, i64 %indvars.iv
  %6 = load i64, ptr %5, align 8
  %7 = tail call i64 @FT_RoundFix(i64 noundef %6) #16
  %8 = ashr i64 %7, 16
  %9 = getelementptr inbounds [4 x i64], ptr %4, i64 0, i64 %indvars.iv
  store i64 %8, ptr %9, align 8
  %indvars.iv.next = add nuw nsw i64 %indvars.iv, 1
  %exitcond.not = icmp eq i64 %indvars.iv.next, %wide.trip.count
  br i1 %exitcond.not, label %._crit_edge, label %.lr.ph, !llvm.loop !26

._crit_edge:                                      ; preds = %.lr.ph, %3
  %10 = call i32 @T1_Set_MM_Design(ptr noundef %0, i32 noundef %spec.store.select, ptr noundef nonnull %4)
  ret i32 %10
}